target datalayout = "e-m:e-p270:32:32-p271:32:32-p272:64:64-i64:64-i128:128-f80:128-n8:16:32:64-S128"
target triple = "x86_64-pc-linux-gnu"

%struct._zend_ptr_stack = type { i32, i32, ptr, ptr, i8 }
%struct.__va_list_tag = type { i32, i32, ptr, ptr }

; Function Attrs: nounwind uwtable
define void @zend_ptr_stack_n_push(ptr noundef %0, i32 noundef %1, ...) #0 {
  %3 = alloca ptr, align 8
  %4 = alloca i32, align 4
  %5 = alloca [1 x %struct.__va_list_tag], align 16
  %6 = alloca ptr, align 8
  store ptr %0, ptr %3, align 8
  store i32 %1, ptr %4, align 4
  %7 = load ptr, ptr %3, align 8
  %8 = getelementptr inbounds %struct._zend_ptr_stack, ptr %7, i32 0, i32 0
  %9 = load i32, ptr %8, align 8
  %10 = load i32, ptr %4, align 4
  %11 = add nsw i32 %9, %10
  %12 = load ptr, ptr %3, align 8
  %13 = getelementptr inbounds %struct._zend_ptr_stack, ptr %12, i32 0, i32 1
  %14 = load i32, ptr %13, align 4
  %15 = icmp sgt i32 %11, %14
  br i1 %15, label %16, label %69

16:                                               ; preds = %2
  br label %17

17:                                               ; preds = %22, %16
  %18 = load ptr, ptr %3, align 8
  %19 = getelementptr inbounds %struct._zend_ptr_stack, ptr %18, i32 0, i32 1
  %20 = load i32, ptr %19, align 4
  %21 = add nsw i32 %20, 64
  store i32 %21, ptr %19, align 4
  br label %22

22:                                               ; preds = %17
  %23 = load ptr, ptr %3, align 8
  %24 = getelementptr inbounds %struct._zend_ptr_stack, ptr %23, i32 0, i32 0
  %25 = load i32, ptr %24, align 8
  %26 = load i32, ptr %4, align 4
  %27 = add nsw i32 %25, %26
  %28 = load ptr, ptr %3, align 8
  %29 = getelementptr inbounds %struct._zend_ptr_stack, ptr %28, i32 0, i32 1
  %30 = load i32, ptr %29, align 4
  %31 = icmp sgt i32 %27, %30
  br i1 %31, label %17, label %32

32:                                               ; preds = %22
  %33 = load ptr, ptr %3, align 8
  %34 = getelementptr inbounds %struct._zend_ptr_stack, ptr %33, i32 0, i32 4
  %35 = load i8, ptr %34, align 8
  %36 = trunc i8 %35 to i1
  br i1 %36, label %37, label %46

37:                                               ; preds = %32
  %38 = load ptr, ptr %3, align 8
  %39 = getelementptr inbounds %struct._zend_ptr_stack, ptr %38, i32 0, i32 2
  %40 = load ptr, ptr %39, align 8
  %41 = load ptr, ptr %3, align 8
  %42 = getelementptr inbounds %struct._zend_ptr_stack, ptr %41, i32 0, i32 1
  %43 = load i32, ptr %42, align 4
  %44 = sext i32 %43 to i64
  %45 = call ptr @_safe_realloc(ptr noundef %40, i64 noundef 8, i64 noundef %44, i64 noundef 0)
  br label %55

46:                                               ; preds = %32
  %47 = load ptr, ptr %3, align 8
  %48 = getelementptr inbounds %struct._zend_ptr_stack, ptr %47, i32 0, i32 2
  %49 = load ptr, ptr %48, align 8
  %50 = load ptr, ptr %3, align 8
  %51 = getelementptr inbounds %struct._zend_ptr_stack, ptr %50, i32 0, i32 1
  %52 = load i32, ptr %51, align 4
  %53 = sext i32 %52 to i64
  %54 = call ptr @_safe_erealloc(ptr noundef %49, i64 noundef 8, i64 noundef %53, i64 noundef 0)
  br label %55

55:                                               ; preds = %46, %37
  %56 = phi ptr [ %45, %37 ], [ %54, %46 ]
  %57 = load ptr, ptr %3, align 8
  %58 = getelementptr inbounds %struct._zend_ptr_stack, ptr %57, i32 0, i32 2
  store ptr %56, ptr %58, align 8
  %59 = load ptr, ptr %3, align 8
  %60 = getelementptr inbounds %struct._zend_ptr_stack, ptr %59, i32 0, i32 2
  %61 = load ptr, ptr %60, align 8
  %62 = load ptr, ptr %3, align 8
  %63 = getelementptr inbounds %struct._zend_ptr_stack, ptr %62, i32 0, i32 0
  %64 = load i32, ptr %63, align 8
  %65 = sext i32 %64 to i64
  %66 = getelementptr inbounds ptr, ptr %61, i64 %65
  %67 = load ptr, ptr %3, align 8
  %68 = getelementptr inbounds %struct._zend_ptr_stack, ptr %67, i32 0, i32 3
  store ptr %66, ptr %68, align 8
  br label %69

69:                                               ; preds = %55, %2
  %70 = getelementptr inbounds [1 x %struct.__va_list_tag], ptr %5, i64 0, i64 0
  call void @llvm.va_start(ptr %70)
  br label %71

71:                                               ; preds = %88, %69
  %72 = load i32, ptr %4, align 4
  %73 = icmp sgt i32 %72, 0
  br i1 %73, label %74, label %102

74:                                               ; preds = %71
  %75 = getelementptr inbounds [1 x %struct.__va_list_tag], ptr %5, i64 0, i64 0
  %76 = getelementptr inbounds %struct.__va_list_tag, ptr %75, i32 0, i32 0
  %77 = load i32, ptr %76, align 16
  %78 = icmp ule i32 %77, 40
  br i1 %78, label %79, label %84

79:                                               ; preds = %74
  %80 = getelementptr inbounds %struct.__va_list_tag, ptr %75, i32 0, i32 3
  %81 = load ptr, ptr %80, align 16
  %82 = getelementptr i8, ptr %81, i32 %77
  %83 = add i32 %77, 8
  store i32 %83, ptr %76, align 16
  br label %88

84:                                               ; preds = %74
  %85 = getelementptr inbounds %struct.__va_list_tag, ptr %75, i32 0, i32 2
  %86 = load ptr, ptr %85, align 8
  %87 = getelementptr i8, ptr %86, i32 8
  store ptr %87, ptr %85, align 8
  br label %88

88:                                               ; preds = %84, %79
  %89 = phi ptr [ %82, %79 ], [ %86, %84 ]
  %90 = load ptr, ptr %89, align 8
  store ptr %90, ptr %6, align 8
  %91 = load ptr, ptr %3, align 8
  %92 = getelementptr inbounds %struct._zend_ptr_stack, ptr %91, i32 0, i32 0
  %93 = load i32, ptr %92, align 8
  %94 = add nsw i32 %93, 1
  store i32 %94, ptr %92, align 8
  %95 = load ptr, ptr %6, align 8
  %96 = load ptr, ptr %3, align 8
  %97 = getelementptr inbounds %struct._zend_ptr_stack, ptr %96, i32 0, i32 3
  %98 = load ptr, ptr %97, align 8
  %99 = getelementptr inbounds ptr, ptr %98, i32 1
  store ptr %99, ptr %97, align 8
  store ptr %95, ptr %98, align 8
  %100 = load i32, ptr %4, align 4
  %101 = add nsw i32 %100, -1
  store i32 %101, ptr %4, align 4
  br label %71

102:                                              ; preds = %71
  %103 = getelementptr inbounds [1 x %struct.__va_list_tag], ptr %5, i64 0, i64 0
  call void @llvm.va_end(ptr %103)
  ret void
}