; Function Attrs: nounwind uwtable
define void @zend_ptr_stack_n_push(ptr nocapture noundef %0, i32 noundef %1, ...) local_unnamed_addr #1 {
  %3 = alloca [1 x %struct.__va_list_tag], align 16
  %4 = load i32, ptr %0, align 8
  %5 = add nsw i32 %4, %1
  %6 = getelementptr inbounds i8, ptr %0, i64 4
  %7 = load i32, ptr %6, align 4
  %8 = icmp sgt i32 %5, %7
  br i1 %8, label %.preheader, label %32

.preheader:                                       ; preds = %2
  %9 = add nsw i32 %7, 64
  %smax = tail call i32 @llvm.smax.i32(i32 %5, i32 %9)
  %10 = xor i32 %7, -1
  %11 = add i32 %smax, %10
  %12 = and i32 %11, -64
  %13 = add i32 %7, %12
  %14 = add i32 %13, 64
  store i32 %14, ptr %6, align 4
  %15 = getelementptr inbounds i8, ptr %0, i64 24
  %16 = load i8, ptr %15, align 8
  %17 = and i8 %16, 1
  %.not = icmp eq i8 %17, 0
  %18 = getelementptr inbounds i8, ptr %0, i64 8
  %19 = load ptr, ptr %18, align 8
  %20 = sext i32 %14 to i64
  br i1 %.not, label %23, label %21

21:                                               ; preds = %.preheader
  %22 = tail call ptr @_safe_realloc(ptr noundef %19, i64 noundef 8, i64 noundef %20, i64 noundef 0) #9
  br label %25

23:                                               ; preds = %.preheader
  %24 = tail call ptr @_safe_erealloc(ptr noundef %19, i64 noundef 8, i64 noundef %20, i64 noundef 0) #9
  br label %25

25:                                               ; preds = %23, %21
  %26 = phi ptr [ %22, %21 ], [ %24, %23 ]
  %27 = getelementptr inbounds i8, ptr %0, i64 8
  store ptr %26, ptr %27, align 8
  %28 = load i32, ptr %0, align 8
  %29 = sext i32 %28 to i64
  %30 = getelementptr inbounds ptr, ptr %26, i64 %29
  %31 = getelementptr inbounds i8, ptr %0, i64 16
  store ptr %30, ptr %31, align 8
  br label %32

32:                                               ; preds = %25, %2
  call void @llvm.va_start(ptr nonnull %3)
  %33 = icmp sgt i32 %1, 0
  br i1 %33, label %.lr.ph, label %._crit_edge

.lr.ph:                                           ; preds = %32
  %34 = getelementptr inbounds i8, ptr %3, i64 8
  %35 = getelementptr inbounds i8, ptr %3, i64 16
  %36 = getelementptr inbounds i8, ptr %0, i64 16
  br label %37

37:                                               ; preds = %.lr.ph, %48
  %.023 = phi i32 [ %1, %.lr.ph ], [ %55, %48 ]
  %38 = load i32, ptr %3, align 16
  %39 = icmp ult i32 %38, 41
  br i1 %39, label %40, label %45

40:                                               ; preds = %37
  %41 = load ptr, ptr %35, align 16
  %42 = zext nneg i32 %38 to i64
  %43 = getelementptr i8, ptr %41, i64 %42
  %44 = add nuw nsw i32 %38, 8
  store i32 %44, ptr %3, align 16
  br label %48

45:                                               ; preds = %37
  %46 = load ptr, ptr %34, align 8
  %47 = getelementptr i8, ptr %46, i64 8
  store ptr %47, ptr %34, align 8
  br label %48

48:                                               ; preds = %45, %40
  %49 = phi ptr [ %43, %40 ], [ %46, %45 ]
  %50 = load ptr, ptr %49, align 8
  %51 = load i32, ptr %0, align 8
  %52 = add nsw i32 %51, 1
  store i32 %52, ptr %0, align 8
  %53 = load ptr, ptr %36, align 8
  %54 = getelementptr inbounds i8, ptr %53, i64 8
  store ptr %54, ptr %36, align 8
  store ptr %50, ptr %53, align 8
  %55 = add nsw i32 %.023, -1
  %56 = icmp sgt i32 %.023, 1
  br i1 %56, label %37, label %._crit_edge

._crit_edge:                                      ; preds = %48, %32
  call void @llvm.va_end(ptr nonnull %3)
  ret void
}